target datalayout = "e-m:e-p270:32:32-p271:32:32-p272:64:64-i64:64-i128:128-f80:128-n8:16:32:64-S128"
target triple = "x86_64-pc-linux-gnu"

%class.ShenandoahAdaptiveHeuristics = type { %class.ShenandoahHeuristics.base, %class.ShenandoahAllocationRate, double, double, i32, %class.TruncatedSeq }
%class.ShenandoahHeuristics.base = type <{ ptr, ptr, ptr, double, double, i64, i64, ptr, %struct.ShenandoahSharedFlag }>
%struct.ShenandoahSharedFlag = type { [64 x i8], i8, [64 x i8] }
%class.ShenandoahAllocationRate = type { double, i64, double, %class.TruncatedSeq, %class.TruncatedSeq }
%class.TruncatedSeq = type { %class.AbsSeq, ptr, i32, i32 }
%class.AbsSeq = type { ptr, i32, double, double, double, double, double }

@ShenandoahAdaptiveInitialConfidence = external global double, align 8
@ShenandoahAdaptiveInitialSpikeThreshold = external global double, align 8
@_ZN24ShenandoahAllocationRateC1Ev = hidden unnamed_addr alias void (ptr), ptr @_ZN24ShenandoahAllocationRateC2Ev

; Function Attrs: mustprogress nounwind uwtable
define hidden void @_ZN28ShenandoahAdaptiveHeuristicsC2EP19ShenandoahSpaceInfo(ptr noundef nonnull align 8 dereferenceable(464) %0, ptr noundef %1) unnamed_addr #1 align 2 {
  %3 = alloca ptr, align 8
  %4 = alloca ptr, align 8
  store ptr %0, ptr %3, align 8
  store ptr %1, ptr %4, align 8
  %5 = load ptr, ptr %3, align 8
  %6 = load ptr, ptr %4, align 8
  call void @_ZN20ShenandoahHeuristicsC2EP19ShenandoahSpaceInfo(ptr noundef nonnull align 8 dereferenceable(193) %5, ptr noundef %6)
  store ptr getelementptr inbounds inrange(-16, 152) ({ [21 x ptr] }, ptr @_ZTV28ShenandoahAdaptiveHeuristics, i32 0, i32 0, i32 2), ptr %5, align 8
  %7 = getelementptr inbounds %class.ShenandoahAdaptiveHeuristics, ptr %5, i32 0, i32 1
  call void @_ZN24ShenandoahAllocationRateC1Ev(ptr noundef nonnull align 8 dereferenceable(168) %7)
  %8 = getelementptr inbounds %class.ShenandoahAdaptiveHeuristics, ptr %5, i32 0, i32 2
  %9 = load double, ptr @ShenandoahAdaptiveInitialConfidence, align 8
  store double %9, ptr %8, align 8
  %10 = getelementptr inbounds %class.ShenandoahAdaptiveHeuristics, ptr %5, i32 0, i32 3
  %11 = load double, ptr @ShenandoahAdaptiveInitialSpikeThreshold, align 8
  store double %11, ptr %10, align 8
  %12 = getelementptr inbounds %class.ShenandoahAdaptiveHeuristics, ptr %5, i32 0, i32 4
  store i32 2, ptr %12, align 8
  %13 = getelementptr inbounds %class.ShenandoahAdaptiveHeuristics, ptr %5, i32 0, i32 5
  call void @_ZN12TruncatedSeqC1Eid(ptr noundef nonnull align 8 dereferenceable(72) %13, i32 noundef 10, double noundef 3.000000e-01)
  ret void
}