; Function Attrs: mustprogress nounwind uwtable
define hidden void @_ZN28ShenandoahAdaptiveHeuristicsC2EP19ShenandoahSpaceInfo(ptr noundef nonnull align 8 dereferenceable(464) %0, ptr noundef %1) unnamed_addr #0 align 2 {
  tail call void @_ZN20ShenandoahHeuristicsC2EP19ShenandoahSpaceInfo(ptr noundef nonnull align 8 dereferenceable(193) %0, ptr noundef %1) #11
  store ptr getelementptr inbounds inrange(-16, 152) (i8, ptr @_ZTV28ShenandoahAdaptiveHeuristics, i64 16), ptr %0, align 8
  %3 = getelementptr inbounds i8, ptr %0, i64 200
  %4 = tail call noundef double @_ZN2os11elapsedTimeEv() #11
  store double %4, ptr %3, align 8
  %5 = getelementptr inbounds i8, ptr %0, i64 208
  store i64 0, ptr %5, align 8
  %6 = getelementptr inbounds i8, ptr %0, i64 216
  %7 = load i64, ptr @ShenandoahAdaptiveSampleFrequencyHz, align 8
  %8 = uitofp i64 %7 to double
  %9 = fdiv double 1.000000e+00, %8
  store double %9, ptr %6, align 8
  %10 = getelementptr inbounds i8, ptr %0, i64 224
  %11 = load i64, ptr @ShenandoahAdaptiveSampleSizeSeconds, align 8
  %12 = mul i64 %11, %7
  %13 = trunc i64 %12 to i32
  %14 = load double, ptr @ShenandoahAdaptiveDecayFactor, align 8
  tail call void @_ZN12TruncatedSeqC1Eid(ptr noundef nonnull align 8 dereferenceable(72) %10, i32 noundef %13, double noundef %14) #11
  %15 = getelementptr inbounds i8, ptr %0, i64 296
  %16 = load i64, ptr @ShenandoahAdaptiveSampleSizeSeconds, align 8
  %17 = load i64, ptr @ShenandoahAdaptiveSampleFrequencyHz, align 8
  %18 = mul i64 %17, %16
  %19 = trunc i64 %18 to i32
  %20 = load double, ptr @ShenandoahAdaptiveDecayFactor, align 8
  tail call void @_ZN12TruncatedSeqC1Eid(ptr noundef nonnull align 8 dereferenceable(72) %15, i32 noundef %19, double noundef %20) #11
  %21 = getelementptr inbounds i8, ptr %0, i64 368
  %22 = load double, ptr @ShenandoahAdaptiveInitialConfidence, align 8
  store double %22, ptr %21, align 8
  %23 = getelementptr inbounds i8, ptr %0, i64 376
  %24 = load double, ptr @ShenandoahAdaptiveInitialSpikeThreshold, align 8
  store double %24, ptr %23, align 8
  %25 = getelementptr inbounds i8, ptr %0, i64 384
  store i32 2, ptr %25, align 8
  %26 = getelementptr inbounds i8, ptr %0, i64 392
  tail call void @_ZN12TruncatedSeqC1Eid(ptr noundef nonnull align 8 dereferenceable(72) %26, i32 noundef 10, double noundef 3.000000e-01) #11
  ret void
}